target datalayout = "e-m:e-p270:32:32-p271:32:32-p272:64:64-i64:64-i128:128-f80:128-n8:16:32:64-S128"
target triple = "x86_64-pc-linux-gnu"

%struct.expert_field = type { i32, i32 }
%struct._packet_info = type { ptr, ptr, i32, i32, %struct.nstime_t, %struct.nstime_t, %struct.nstime_t, i8, ptr, ptr, ptr, ptr, %struct._address, %struct._address, %struct._address, %struct._address, %struct._address, %struct._address, i32, ptr, i8, [3 x i8], %struct.anon, i32, i32, i32, i32, ptr, i8, ptr, ptr, i16, i16, i32, i32, i16, i32, i32, ptr, ptr, ptr, i8, i8, i16, i16, i16, i32, i16, i16, ptr, ptr, ptr, ptr, ptr, i32, i32 }
%struct.nstime_t = type { i64, i32 }
%struct._address = type { i32, i32, ptr, ptr }
%struct.anon = type { i8, [3 x i8] }
%struct._MAD = type { i8, i8, i8, i8, i16, i8, i8, i64, i16, i16, i32 }

@hf_opa_sm_lid = internal global i32 0, align 4
@hf_opa_sm_m_key = internal global i32 0, align 4
@ett_sm_lid = internal global i32 0, align 4
@ei_opa_mad_no_attribute_dissector = internal global %struct.expert_field zeroinitializer, align 4
@pref_parse_on_mad_status_error = internal global i8 0, align 1
@.str.2274 = private unnamed_addr constant [43 x i8] c"Attribute Dissector Not Implemented (0x%x)\00", align 1
@.str.2280 = private unnamed_addr constant [4 x i8] c" %s\00", align 1
@.str.2291 = private unnamed_addr constant [21 x i8] c"(Unknown SM Method!)\00", align 1
@.str.2298 = private unnamed_addr constant [34 x i8] c"Attribute (Unknown SM Attribute!)\00", align 1
@.str.2299 = private unnamed_addr constant [3 x i8] c"%s\00", align 1

; Function Attrs: null_pointer_is_valid sspstrong uwtable
define internal void @label_SUBM_Attribute(ptr noundef %0, ptr noundef %1, ptr noundef %2) #0 {
  %4 = alloca ptr, align 8
  %5 = alloca ptr, align 8
  %6 = alloca ptr, align 8
  %7 = alloca ptr, align 8
  store ptr %0, ptr %4, align 8
  store ptr %1, ptr %5, align 8
  store ptr %2, ptr %6, align 8
  call void @llvm.lifetime.start.p0(i64 8, ptr %7) #7
  %8 = load ptr, ptr %5, align 8
  %9 = getelementptr inbounds nuw %struct._MAD, ptr %8, i32 0, i32 8
  %10 = load i16, ptr %9, align 8
  %11 = zext i16 %10 to i32
  %12 = call ptr @val_to_str_const(i32 noundef %11, ptr noundef @SUBM_Attributes, ptr noundef @.str.2298)
  store ptr %12, ptr %7, align 8
  %13 = load ptr, ptr %4, align 8
  %14 = load ptr, ptr %7, align 8
  %15 = getelementptr i8, ptr %14, i64 11
  call void (ptr, ptr, ...) @proto_item_append_text(ptr noundef %13, ptr noundef @.str.2299, ptr noundef %15)
  %16 = load ptr, ptr %6, align 8
  %17 = getelementptr inbounds nuw %struct._packet_info, ptr %16, i32 0, i32 1
  %18 = load ptr, ptr %17, align 8
  %19 = load ptr, ptr %7, align 8
  %20 = getelementptr i8, ptr %19, i64 11
  call void @col_append_str(ptr noundef %18, i32 noundef 25, ptr noundef %20)
  call void @llvm.lifetime.end.p0(i64 8, ptr %7) #7
  ret void
}

; Function Attrs: null_pointer_is_valid sspstrong uwtable
define internal void @label_SUBM_Method(ptr noundef %0, ptr noundef %1, ptr noundef %2) #0 {
  %4 = alloca ptr, align 8
  %5 = alloca ptr, align 8
  %6 = alloca ptr, align 8
  %7 = alloca ptr, align 8
  store ptr %0, ptr %4, align 8
  store ptr %1, ptr %5, align 8
  store ptr %2, ptr %6, align 8
  call void @llvm.lifetime.start.p0(i64 8, ptr %7) #7
  %8 = load ptr, ptr %5, align 8
  %9 = getelementptr inbounds nuw %struct._MAD, ptr %8, i32 0, i32 3
  %10 = load i8, ptr %9, align 1
  %11 = zext i8 %10 to i32
  %12 = call ptr @val_to_str_const(i32 noundef %11, ptr noundef @SUBM_Methods, ptr noundef @.str.2291)
  store ptr %12, ptr %7, align 8
  %13 = load ptr, ptr %4, align 8
  %14 = load ptr, ptr %7, align 8
  call void (ptr, ptr, ...) @proto_item_append_text(ptr noundef %13, ptr noundef @.str.2280, ptr noundef %14)
  %15 = load ptr, ptr %6, align 8
  %16 = getelementptr inbounds nuw %struct._packet_info, ptr %15, i32 0, i32 1
  %17 = load ptr, ptr %16, align 8
  %18 = load ptr, ptr %7, align 8
  call void @col_append_str(ptr noundef %17, i32 noundef 25, ptr noundef %18)
  call void @llvm.lifetime.end.p0(i64 8, ptr %7) #7
  ret void
}

; Function Attrs: null_pointer_is_valid sspstrong uwtable
define internal void @parse_SUBN_LID_ROUTED(ptr noundef %0, ptr noundef %1, ptr noundef %2, ptr noundef %3) #0 {
  %5 = alloca ptr, align 8
  %6 = alloca ptr, align 8
  %7 = alloca ptr, align 8
  %8 = alloca ptr, align 8
  %9 = alloca %struct._MAD, align 8
  %10 = alloca i32, align 4
  %11 = alloca ptr, align 8
  %12 = alloca ptr, align 8
  %13 = alloca i32, align 4
  store ptr %0, ptr %5, align 8
  store ptr %1, ptr %6, align 8
  store ptr %2, ptr %7, align 8
  store ptr %3, ptr %8, align 8
  call void @llvm.lifetime.start.p0(i64 24, ptr %9) #7
  call void @llvm.lifetime.start.p0(i64 4, ptr %10) #7
  call void @llvm.lifetime.start.p0(i64 8, ptr %11) #7
  call void @llvm.lifetime.start.p0(i64 8, ptr %12) #7
  %14 = load ptr, ptr %5, align 8
  %15 = load ptr, ptr %6, align 8
  %16 = load ptr, ptr %7, align 8
  %17 = load ptr, ptr %8, align 8
  %18 = call zeroext i1 @parse_MAD_Common(ptr noundef %14, ptr noundef %15, ptr noundef %16, ptr noundef %17, ptr noundef %9)
  br i1 %18, label %20, label %19

19:                                               ; preds = %4
  store i32 1, ptr %13, align 4
  br label %78

20:                                               ; preds = %4
  %21 = load ptr, ptr %8, align 8
  %22 = load i32, ptr %21, align 4
  store i32 %22, ptr %10, align 4
  %23 = load ptr, ptr %5, align 8
  %24 = load i32, ptr @hf_opa_sm_lid, align 4
  %25 = load ptr, ptr %7, align 8
  %26 = load i32, ptr %10, align 4
  %27 = call ptr @proto_tree_add_item(ptr noundef %23, i32 noundef %24, ptr noundef %25, i32 noundef %26, i32 noundef -1, i32 noundef 0)
  store ptr %27, ptr %11, align 8
  %28 = load ptr, ptr %11, align 8
  %29 = load i32, ptr @ett_sm_lid, align 4
  %30 = call ptr @proto_item_add_subtree(ptr noundef %28, i32 noundef %29)
  store ptr %30, ptr %12, align 8
  %31 = load ptr, ptr %12, align 8
  %32 = load i32, ptr @hf_opa_sm_m_key, align 4
  %33 = load ptr, ptr %7, align 8
  %34 = load i32, ptr %10, align 4
  %35 = call ptr @proto_tree_add_item(ptr noundef %31, i32 noundef %32, ptr noundef %33, i32 noundef %34, i32 noundef 8, i32 noundef 0)
  %36 = load i32, ptr %10, align 4
  %37 = add i32 %36, 8
  store i32 %37, ptr %10, align 4
  %38 = load ptr, ptr %11, align 8
  %39 = load ptr, ptr %6, align 8
  call void @label_SUBM_Method(ptr noundef %38, ptr noundef %9, ptr noundef %39)
  %40 = load ptr, ptr %11, align 8
  %41 = load ptr, ptr %6, align 8
  call void @label_SUBM_Attribute(ptr noundef %40, ptr noundef %9, ptr noundef %41)
  %42 = load i32, ptr %10, align 4
  %43 = load ptr, ptr %8, align 8
  store i32 %42, ptr %43, align 4
  %44 = load i8, ptr @pref_parse_on_mad_status_error, align 1, !range !8, !noundef !9
  %45 = trunc i8 %44 to i1
  br i1 %45, label %58, label %46

46:                                               ; preds = %20
  %47 = getelementptr inbounds nuw %struct._MAD, ptr %9, i32 0, i32 4
  %48 = load i16, ptr %47, align 4
  %49 = zext i16 %48 to i32
  %50 = icmp ne i32 %49, 0
  br i1 %50, label %51, label %58

51:                                               ; preds = %46
  %52 = load ptr, ptr %7, align 8
  %53 = load ptr, ptr %8, align 8
  %54 = load i32, ptr %53, align 4
  %55 = call i32 @tvb_captured_length_remaining(ptr noundef %52, i32 noundef %54)
  %56 = load i32, ptr %10, align 4
  %57 = add i32 %56, %55
  store i32 %57, ptr %10, align 4
  br label %75

58:                                               ; preds = %46, %20
  %59 = load ptr, ptr %12, align 8
  %60 = load ptr, ptr %7, align 8
  %61 = call zeroext i1 @parse_SUBM_Attribute(ptr noundef %59, ptr noundef %60, ptr noundef %10, ptr noundef %9)
  br i1 %61, label %74, label %62

62:                                               ; preds = %58
  %63 = load ptr, ptr %6, align 8
  %64 = getelementptr inbounds nuw %struct._MAD, ptr %9, i32 0, i32 8
  %65 = load i16, ptr %64, align 8
  %66 = zext i16 %65 to i32
  %67 = call ptr (ptr, ptr, ptr, ptr, ...) @expert_add_info_format(ptr noundef %63, ptr noundef null, ptr noundef @ei_opa_mad_no_attribute_dissector, ptr noundef @.str.2274, i32 noundef %66)
  %68 = load ptr, ptr %7, align 8
  %69 = load ptr, ptr %8, align 8
  %70 = load i32, ptr %69, align 4
  %71 = call i32 @tvb_captured_length_remaining(ptr noundef %68, i32 noundef %70)
  %72 = load i32, ptr %10, align 4
  %73 = add i32 %72, %71
  store i32 %73, ptr %10, align 4
  br label %74

74:                                               ; preds = %62, %58
  br label %75

75:                                               ; preds = %74, %51
  %76 = load i32, ptr %10, align 4
  %77 = load ptr, ptr %8, align 8
  store i32 %76, ptr %77, align 4
  store i32 0, ptr %13, align 4
  br label %78

78:                                               ; preds = %75, %19
  call void @llvm.lifetime.end.p0(i64 8, ptr %12) #7
  call void @llvm.lifetime.end.p0(i64 8, ptr %11) #7
  call void @llvm.lifetime.end.p0(i64 4, ptr %10) #7
  call void @llvm.lifetime.end.p0(i64 24, ptr %9) #7
  %79 = load i32, ptr %13, align 4
  switch i32 %79, label %81 [
    i32 0, label %80
    i32 1, label %80
  ]

80:                                               ; preds = %78, %78
  ret void

81:                                               ; preds = %78
  unreachable
}