; Function Attrs: null_pointer_is_valid sspstrong uwtable
define internal fastcc void @parse_SUBN_LID_ROUTED(ptr noundef %0, ptr noundef %1, ptr noundef %2, ptr noundef captures(none) %3) unnamed_addr #0 {
  %5 = alloca %struct._MAD, align 8
  %6 = alloca i32, align 4
  call void @llvm.lifetime.start.p0(i64 24, ptr nonnull %5) #5
  call void @llvm.lifetime.start.p0(i64 4, ptr nonnull %6) #5
  %7 = call fastcc zeroext i1 @parse_MAD_Common(ptr noundef %0, ptr noundef %1, ptr noundef %2, ptr noundef %3, ptr noundef nonnull %5)
  br i1 %7, label %8, label %47

8:                                                ; preds = %4
  %9 = load i32, ptr %3, align 4
  %10 = load i32, ptr @hf_opa_sm_lid, align 4
  %11 = call ptr @proto_tree_add_item(ptr noundef %0, i32 noundef %10, ptr noundef %2, i32 noundef %9, i32 noundef -1, i32 noundef 0)
  %12 = load i32, ptr @ett_sm_lid, align 4
  %13 = call ptr @proto_item_add_subtree(ptr noundef %11, i32 noundef %12)
  %14 = load i32, ptr @hf_opa_sm_m_key, align 4
  %15 = call ptr @proto_tree_add_item(ptr noundef %13, i32 noundef %14, ptr noundef %2, i32 noundef %9, i32 noundef 8, i32 noundef 0)
  %16 = add i32 %9, 8
  store i32 %16, ptr %6, align 4
  %17 = getelementptr inbounds nuw i8, ptr %5, i64 3
  %.val = load i8, ptr %17, align 1
  %18 = zext i8 %.val to i32
  %19 = call ptr @val_to_str_const(i32 noundef %18, ptr noundef nonnull @SUBM_Methods, ptr noundef nonnull @.str.2291)
  call void (ptr, ptr, ...) @proto_item_append_text(ptr noundef %11, ptr noundef nonnull @.str.2280, ptr noundef %19)
  %20 = getelementptr inbounds nuw i8, ptr %1, i64 8
  %21 = load ptr, ptr %20, align 8
  call void @col_append_str(ptr noundef %21, i32 noundef 25, ptr noundef %19)
  %22 = getelementptr inbounds nuw i8, ptr %5, i64 16
  %.val27 = load i16, ptr %22, align 8
  %23 = zext i16 %.val27 to i32
  %24 = call ptr @val_to_str_const(i32 noundef %23, ptr noundef nonnull @SUBM_Attributes, ptr noundef nonnull @.str.2298)
  %25 = getelementptr i8, ptr %24, i64 11
  call void (ptr, ptr, ...) @proto_item_append_text(ptr noundef %11, ptr noundef nonnull @.str.2299, ptr noundef %25)
  %26 = load ptr, ptr %20, align 8
  call void @col_append_str(ptr noundef %26, i32 noundef 25, ptr noundef %25)
  store i32 %16, ptr %3, align 4
  %27 = load i8, ptr @pref_parse_on_mad_status_error, align 1, !range !8, !noundef !9
  %28 = trunc nuw i8 %27 to i1
  %29 = getelementptr inbounds nuw i8, ptr %5, i64 4
  %30 = load i16, ptr %29, align 4
  %31 = icmp eq i16 %30, 0
  %or.cond.not = select i1 %28, i1 true, i1 %31
  br i1 %or.cond.not, label %35, label %32

32:                                               ; preds = %8
  %33 = call i32 @tvb_captured_length_remaining(ptr noundef %2, i32 noundef %16)
  %34 = add i32 %33, %16
  br label %45

35:                                               ; preds = %8
  %36 = call fastcc zeroext i1 @parse_SUBM_Attribute(ptr noundef %13, ptr noundef %2, ptr noundef nonnull %6, ptr noundef nonnull %5)
  br i1 %36, label %._crit_edge, label %37

._crit_edge:                                      ; preds = %35
  %.pre = load i32, ptr %6, align 4
  br label %45

37:                                               ; preds = %35
  %38 = load i16, ptr %22, align 8
  %39 = zext i16 %38 to i32
  %40 = call ptr (ptr, ptr, ptr, ptr, ...) @expert_add_info_format(ptr noundef %1, ptr noundef null, ptr noundef nonnull @ei_opa_mad_no_attribute_dissector, ptr noundef nonnull @.str.2274, i32 noundef %39)
  %41 = load i32, ptr %3, align 4
  %42 = call i32 @tvb_captured_length_remaining(ptr noundef %2, i32 noundef %41)
  %43 = load i32, ptr %6, align 4
  %44 = add i32 %43, %42
  br label %45

45:                                               ; preds = %._crit_edge, %37, %32
  %46 = phi i32 [ %.pre, %._crit_edge ], [ %44, %37 ], [ %34, %32 ]
  store i32 %46, ptr %3, align 4
  br label %47

47:                                               ; preds = %4, %45
  call void @llvm.lifetime.end.p0(i64 4, ptr nonnull %6) #5
  call void @llvm.lifetime.end.p0(i64 24, ptr nonnull %5) #5
  ret void
}